target datalayout = "e-m:e-p270:32:32-p271:32:32-p272:64:64-i64:64-i128:128-f80:128-n8:16:32:64-S128"
target triple = "x86_64-pc-linux-gnu"

%"class.icu_77::UObject" = type { ptr }
%"class.icu_77::UnicodeString" = type { %"class.icu_77::Replaceable", %"union.icu_77::UnicodeString::StackBufferOrFields" }
%"class.icu_77::Replaceable" = type { %"class.icu_77::UObject" }
%"union.icu_77::UnicodeString::StackBufferOrFields" = type { %struct.anon.0, [32 x i8] }
%struct.anon.0 = type { i16, i32, i32, ptr }
%"class.icu_77::RuleHalf" = type { [8 x i8], %"class.icu_77::UnicodeString", i32, i32, i32, i32, i32, i8, i8, i32, ptr }

; Function Attrs: inlinehint mustprogress nounwind uwtable
define linkonce_odr void @_ZN6icu_7713UnicodeString13setZeroLengthEv(ptr noundef nonnull align 8 dereferenceable(64) %0) #2 comdat align 2 {
  %2 = alloca ptr, align 8
  store ptr %0, ptr %2, align 8, !tbaa !40
  %3 = load ptr, ptr %2, align 8
  %4 = getelementptr inbounds nuw %"class.icu_77::UnicodeString", ptr %3, i32 0, i32 1
  %5 = getelementptr inbounds nuw %struct.anon.0, ptr %4, i32 0, i32 0
  %6 = load i16, ptr %5, align 8, !tbaa !68
  %7 = sext i16 %6 to i32
  %8 = and i32 %7, 31
  %9 = trunc i32 %8 to i16
  store i16 %9, ptr %5, align 8, !tbaa !68
  ret void
}

; Function Attrs: inlinehint mustprogress nounwind uwtable
define linkonce_odr void @_ZN6icu_7713UnicodeString10setToEmptyEv(ptr noundef nonnull align 8 dereferenceable(64) %0) #2 comdat align 2 {
  %2 = alloca ptr, align 8
  store ptr %0, ptr %2, align 8, !tbaa !40
  %3 = load ptr, ptr %2, align 8
  %4 = getelementptr inbounds nuw %"class.icu_77::UnicodeString", ptr %3, i32 0, i32 1
  %5 = getelementptr inbounds nuw %struct.anon.0, ptr %4, i32 0, i32 0
  store i16 2, ptr %5, align 8, !tbaa !68
  ret void
}

; Function Attrs: inlinehint mustprogress nounwind uwtable
define linkonce_odr noundef signext i8 @_ZNK6icu_7713UnicodeString7isBogusEv(ptr noundef nonnull align 8 dereferenceable(64) %0) #2 comdat align 2 {
  %2 = alloca ptr, align 8
  store ptr %0, ptr %2, align 8, !tbaa !40
  %3 = load ptr, ptr %2, align 8
  %4 = getelementptr inbounds nuw %"class.icu_77::UnicodeString", ptr %3, i32 0, i32 1
  %5 = getelementptr inbounds nuw %struct.anon.0, ptr %4, i32 0, i32 0
  %6 = load i16, ptr %5, align 8, !tbaa !68
  %7 = sext i16 %6 to i32
  %8 = and i32 %7, 1
  %9 = trunc i32 %8 to i8
  ret i8 %9
}

; Function Attrs: inlinehint mustprogress uwtable
define linkonce_odr noundef nonnull align 8 dereferenceable(64) ptr @_ZN6icu_7713UnicodeString6removeEv(ptr noundef nonnull align 8 dereferenceable(64) %0) #3 comdat align 2 {
  %2 = alloca ptr, align 8
  store ptr %0, ptr %2, align 8, !tbaa !40
  %3 = load ptr, ptr %2, align 8
  %4 = call noundef signext i8 @_ZNK6icu_7713UnicodeString7isBogusEv(ptr noundef nonnull align 8 dereferenceable(64) %3)
  %5 = icmp ne i8 %4, 0
  br i1 %5, label %6, label %7

6:                                                ; preds = %1
  call void @_ZN6icu_7713UnicodeString10setToEmptyEv(ptr noundef nonnull align 8 dereferenceable(64) %3)
  br label %8

7:                                                ; preds = %1
  call void @_ZN6icu_7713UnicodeString13setZeroLengthEv(ptr noundef nonnull align 8 dereferenceable(64) %3)
  br label %8

8:                                                ; preds = %7, %6
  ret ptr %3
}

; Function Attrs: inlinehint mustprogress uwtable
define linkonce_odr noundef nonnull align 8 dereferenceable(64) ptr @_ZN6icu_7713UnicodeString13removeBetweenEii(ptr noundef nonnull align 8 dereferenceable(64) %0, i32 noundef %1, i32 noundef %2) #3 comdat align 2 {
  %4 = alloca ptr, align 8
  %5 = alloca i32, align 4
  %6 = alloca i32, align 4
  store ptr %0, ptr %4, align 8, !tbaa !40
  store i32 %1, ptr %5, align 4, !tbaa !14
  store i32 %2, ptr %6, align 4, !tbaa !14
  %7 = load ptr, ptr %4, align 8
  %8 = load i32, ptr %5, align 4, !tbaa !14
  %9 = load i32, ptr %6, align 4, !tbaa !14
  %10 = load i32, ptr %5, align 4, !tbaa !14
  %11 = sub nsw i32 %9, %10
  %12 = call noundef nonnull align 8 dereferenceable(64) ptr @_ZN6icu_7713UnicodeString9doReplaceEiiPKDsii(ptr noundef nonnull align 8 dereferenceable(64) %7, i32 noundef %8, i32 noundef %11, ptr noundef null, i32 noundef 0, i32 noundef 0)
  ret ptr %12
}

; Function Attrs: inlinehint mustprogress uwtable
define linkonce_odr noundef nonnull align 8 dereferenceable(64) ptr @_ZN6icu_7713UnicodeString6removeEii(ptr noundef nonnull align 8 dereferenceable(64) %0, i32 noundef %1, i32 noundef %2) #3 comdat align 2 {
  %4 = alloca ptr, align 8
  %5 = alloca ptr, align 8
  %6 = alloca i32, align 4
  %7 = alloca i32, align 4
  store ptr %0, ptr %5, align 8, !tbaa !40
  store i32 %1, ptr %6, align 4, !tbaa !14
  store i32 %2, ptr %7, align 4, !tbaa !14
  %8 = load ptr, ptr %5, align 8
  %9 = load i32, ptr %6, align 4, !tbaa !14
  %10 = icmp sle i32 %9, 0
  br i1 %10, label %11, label %16

11:                                               ; preds = %3
  %12 = load i32, ptr %7, align 4, !tbaa !14
  %13 = icmp eq i32 %12, 2147483647
  br i1 %13, label %14, label %16

14:                                               ; preds = %11
  %15 = call noundef nonnull align 8 dereferenceable(64) ptr @_ZN6icu_7713UnicodeString6removeEv(ptr noundef nonnull align 8 dereferenceable(64) %8)
  store ptr %15, ptr %4, align 8
  br label %20

16:                                               ; preds = %11, %3
  %17 = load i32, ptr %6, align 4, !tbaa !14
  %18 = load i32, ptr %7, align 4, !tbaa !14
  %19 = call noundef nonnull align 8 dereferenceable(64) ptr @_ZN6icu_7713UnicodeString9doReplaceEiiPKDsii(ptr noundef nonnull align 8 dereferenceable(64) %8, i32 noundef %17, i32 noundef %18, ptr noundef null, i32 noundef 0, i32 noundef 0)
  store ptr %19, ptr %4, align 8
  br label %20

20:                                               ; preds = %16, %14
  %21 = load ptr, ptr %4, align 8
  ret ptr %21
}

; Function Attrs: mustprogress uwtable
define void @_ZN6icu_778RuleHalf13removeContextEv(ptr noundef nonnull align 8 dereferenceable(112) %0) #1 align 2 {
  %2 = alloca ptr, align 8
  store ptr %0, ptr %2, align 8, !tbaa !69
  %3 = load ptr, ptr %2, align 8
  %4 = getelementptr inbounds nuw %"class.icu_77::RuleHalf", ptr %3, i32 0, i32 4
  %5 = load i32, ptr %4, align 8, !tbaa !78
  %6 = icmp sge i32 %5, 0
  br i1 %6, label %7, label %12

7:                                                ; preds = %1
  %8 = getelementptr inbounds nuw %"class.icu_77::RuleHalf", ptr %3, i32 0, i32 1
  %9 = getelementptr inbounds nuw %"class.icu_77::RuleHalf", ptr %3, i32 0, i32 4
  %10 = load i32, ptr %9, align 8, !tbaa !78
  %11 = call noundef nonnull align 8 dereferenceable(64) ptr @_ZN6icu_7713UnicodeString6removeEii(ptr noundef nonnull align 8 dereferenceable(64) %8, i32 noundef %10, i32 noundef 2147483647)
  br label %12

12:                                               ; preds = %7, %1
  %13 = getelementptr inbounds nuw %"class.icu_77::RuleHalf", ptr %3, i32 0, i32 3
  %14 = load i32, ptr %13, align 4, !tbaa !77
  %15 = icmp sge i32 %14, 0
  br i1 %15, label %16, label %21

16:                                               ; preds = %12
  %17 = getelementptr inbounds nuw %"class.icu_77::RuleHalf", ptr %3, i32 0, i32 1
  %18 = getelementptr inbounds nuw %"class.icu_77::RuleHalf", ptr %3, i32 0, i32 3
  %19 = load i32, ptr %18, align 4, !tbaa !77
  %20 = call noundef nonnull align 8 dereferenceable(64) ptr @_ZN6icu_7713UnicodeString13removeBetweenEii(ptr noundef nonnull align 8 dereferenceable(64) %17, i32 noundef 0, i32 noundef %19)
  br label %21

21:                                               ; preds = %16, %12
  %22 = getelementptr inbounds nuw %"class.icu_77::RuleHalf", ptr %3, i32 0, i32 4
  store i32 -1, ptr %22, align 8, !tbaa !78
  %23 = getelementptr inbounds nuw %"class.icu_77::RuleHalf", ptr %3, i32 0, i32 3
  store i32 -1, ptr %23, align 4, !tbaa !77
  %24 = getelementptr inbounds nuw %"class.icu_77::RuleHalf", ptr %3, i32 0, i32 8
  store i8 0, ptr %24, align 1, !tbaa !81
  %25 = getelementptr inbounds nuw %"class.icu_77::RuleHalf", ptr %3, i32 0, i32 7
  store i8 0, ptr %25, align 4, !tbaa !82
  ret void
}