; Function Attrs: mustprogress uwtable
define void @_ZN6icu_778RuleHalf13removeContextEv(ptr noundef nonnull align 8 dereferenceable(112) %0) local_unnamed_addr #1 align 2 {
  %2 = getelementptr inbounds nuw i8, ptr %0, i64 80
  %3 = load i32, ptr %2, align 8, !tbaa !53
  %4 = icmp sgt i32 %3, -1
  br i1 %4, label %5, label %_ZN6icu_7713UnicodeString6removeEii.exit

5:                                                ; preds = %1
  %6 = icmp eq i32 %3, 0
  br i1 %6, label %7, label %12

7:                                                ; preds = %5
  %8 = getelementptr inbounds nuw i8, ptr %0, i64 16
  %9 = load i16, ptr %8, align 8, !tbaa !44
  %10 = and i16 %9, 1
  %.not.i.i = icmp eq i16 %10, 0
  %11 = and i16 %9, 30
  %storemerge.i.i = select i1 %.not.i.i, i16 %11, i16 2
  store i16 %storemerge.i.i, ptr %8, align 8, !tbaa !44
  br label %_ZN6icu_7713UnicodeString6removeEii.exit

12:                                               ; preds = %5
  %13 = getelementptr inbounds nuw i8, ptr %0, i64 8
  %14 = tail call noundef nonnull align 8 dereferenceable(64) ptr @_ZN6icu_7713UnicodeString9doReplaceEiiPKDsii(ptr noundef nonnull align 8 dereferenceable(64) %13, i32 noundef %3, i32 noundef 2147483647, ptr noundef null, i32 noundef 0, i32 noundef 0)
  br label %_ZN6icu_7713UnicodeString6removeEii.exit

_ZN6icu_7713UnicodeString6removeEii.exit:         ; preds = %12, %7, %1
  %15 = getelementptr inbounds nuw i8, ptr %0, i64 76
  %16 = load i32, ptr %15, align 4, !tbaa !52
  %17 = icmp sgt i32 %16, -1
  br i1 %17, label %18, label %21

18:                                               ; preds = %_ZN6icu_7713UnicodeString6removeEii.exit
  %19 = getelementptr inbounds nuw i8, ptr %0, i64 8
  %20 = tail call noundef nonnull align 8 dereferenceable(64) ptr @_ZN6icu_7713UnicodeString9doReplaceEiiPKDsii(ptr noundef nonnull align 8 dereferenceable(64) %19, i32 noundef 0, i32 noundef %16, ptr noundef null, i32 noundef 0, i32 noundef 0)
  br label %21

21:                                               ; preds = %18, %_ZN6icu_7713UnicodeString6removeEii.exit
  store i32 -1, ptr %2, align 8, !tbaa !53
  store i32 -1, ptr %15, align 4, !tbaa !52
  %22 = getelementptr inbounds nuw i8, ptr %0, i64 93
  store i8 0, ptr %22, align 1, !tbaa !65
  %23 = getelementptr inbounds nuw i8, ptr %0, i64 92
  store i8 0, ptr %23, align 4, !tbaa !73
  ret void
}